ccopy_reg
_reconstructor
p1
(cxmppd.modules.db_fake
DictWatch
p2
c__builtin__
dict
p3
(dp4
S'127.0.0.1'
p5
g1
(g2
g3
(dp6
S'acc'
p7
g1
(g2
g3
(dp8
S'name'
p9
S'ACC'
p10
sS'groups'
p11
g1
(g2
g3
(dtRp12
sS'roster'
p13
g1
(g2
g3
(dtRp14
sS'anon_allow'
p15
S'yes'
p16
sS'password'
p17
S'LOsIWOdI'
p18
sS'storage'
p19
g1
(g2
g3
(dtRp20
stRp21
sVa
g1
(g2
g3
(dp22
g9
Va
sg11
g1
(g2
g3
(dtRp23
sg13
g1
(g2
g3
(dp24
Vams.127.0.0.1
p25
(dp26
S'state'
p27
S''
sS'subscription'
p28
S'none'
p29
sstRp30
sg15
g16
sg17
Vsecret
p31
sg19
g1
(g2
g3
(dtRp32
stRp33
sVb
g1
(g2
g3
(dp34
g9
Vb
sg11
g1
(g2
g3
(dtRp35
sg13
g1
(g2
g3
(dp36
Vams.127.0.0.1
p37
(dp38
g27
S''
sg28
g29
sstRp39
sg15
g16
sg17
Vsecret
p40
sg19
g1
(g2
g3
(dtRp41
stRp42
sS'df'
p43
g1
(g2
g3
(dp44
g9
S'DF'
p45
sg11
g1
(g2
g3
(dtRp46
sg13
g1
(g2
g3
(dtRp47
sg15
g16
sg17
S'XRlmtyZv'
p48
sg19
g1
(g2
g3
(dtRp49
stRp50
sVagent
p51
g1
(g2
g3
(dp52
S'name'
p53
Vagent
p54
sS'groups'
p55
g1
(g2
g3
(dtRp56
sS'roster'
p57
g1
(g2
g3
(dp58
Vams.127.0.0.1
p59
(dp60
S'state'
p61
S''
sS'subscription'
p62
S'to'
p63
sstRp64
sS'anon_allow'
p65
S'yes'
p66
sS'password'
p67
Vsecret
p68
sS'storage'
p69
g1
(g2
g3
(dtRp70
stRp71
sVtest
p72
g1
(g2
g3
(dp73
S'name'
p74
Vtest
p75
sS'groups'
p76
g1
(g2
g3
(dtRp77
sS'roster'
p78
g1
(g2
g3
(dp79
Vams.127.0.0.1
p80
(dp81
S'state'
p82
S''
sS'subscription'
p83
S'to'
p84
sstRp85
sS'anon_allow'
p86
S'yes'
p87
sS'password'
p88
Vsecret
p89
sS'storage'
p90
g1
(g2
g3
(dtRp91
stRp92
sS'ams'
p93
g1
(g2
g3
(dp94
g9
S'AMS'
p95
sg11
g1
(g2
g3
(dtRp96
sg13
g1
(g2
g3
(dp97
S'agent@127.0.0.1'
p98
(dp99
g27
S''
sg28
S'from'
p100
ssS'a@127.0.0.1'
p101
(dp102
g27
S''
sg28
g29
ssS'b@127.0.0.1'
p103
(dp104
g27
S''
sg28
g29
sstRp105
sg15
g16
sg17
S'XdQpdvtv'
p106
sg19
g1
(g2
g3
(dtRp107
stRp108
sS'__ir__'
p109
(dp110
g15
g16
sg17
S'test'
p111
sg19
(dp112
S'karma'
p113
(dp114
S'down'
p115
I307200
sS'tot_up'
p116
I0
sS'tot_down'
p117
I0
sS'up'
p118
I307200307200307200
sS'last_time'
p119
F0
sssg11
(dp120
sg13
(dp121
sstRp122
stRp123
.