ccopy_reg
_reconstructor
p1
(cxmppd.modules.db_fake
DictWatch
p2
c__builtin__
dict
p3
(dp4
S'127.0.0.1'
p5
g1
(g2
g3
(dp6
Va
g1
(g2
g3
(dp7
S'name'
p8
Va
sS'groups'
p9
g1
(g2
g3
(dtRp10
sS'roster'
p11
g1
(g2
g3
(dp12
Vams.127.0.0.1
p13
(dp14
S'state'
p15
S''
sS'subscription'
p16
S'none'
p17
ssVb@127.0.0.1
p18
(dp19
S'state'
p20
S''
sS'subscription'
p21
S'both'
p22
ssVc@127.0.0.1
p23
(dp24
g20
S''
sg21
g22
sstRp25
sS'anon_allow'
p26
S'yes'
p27
sS'password'
p28
Vsecret
p29
sS'storage'
p30
g1
(g2
g3
(dtRp31
stRp32
sVauctioner
p33
g1
(g2
g3
(dp34
S'name'
p35
Vauctioner
p36
sS'groups'
p37
g1
(g2
g3
(dtRp38
sS'roster'
p39
g1
(g2
g3
(dp40
Vams.127.0.0.1
p41
(dp42
S'state'
p43
S''
sS'subscription'
p44
S'none'
p45
sstRp46
sS'anon_allow'
p47
S'yes'
p48
sS'password'
p49
Vsecret
p50
sS'storage'
p51
g1
(g2
g3
(dtRp52
stRp53
sS'df'
p54
g1
(g2
g3
(dp55
S'name'
p56
S'DF'
p57
sS'groups'
p58
g1
(g2
g3
(dtRp59
sS'roster'
p60
g1
(g2
g3
(dtRp61
sS'anon_allow'
p62
S'yes'
p63
sS'password'
p64
S'EgNrryqr'
p65
sS'storage'
p66
g1
(g2
g3
(dtRp67
stRp68
sVbidder9
p69
g1
(g2
g3
(dp70
g35
Vbidder9
p71
sg37
g1
(g2
g3
(dtRp72
sg39
g1
(g2
g3
(dp73
Vams.127.0.0.1
p74
(dp75
g43
S''
sg44
g45
sstRp76
sg47
g48
sg49
Vsecret
p77
sg51
g1
(g2
g3
(dtRp78
stRp79
sVcoordinator
p80
g1
(g2
g3
(dp81
S'name'
p82
Vcoordinator
p83
sS'groups'
p84
g1
(g2
g3
(dtRp85
sS'roster'
p86
g1
(g2
g3
(dp87
Vams.127.0.0.1
p88
(dp89
S'state'
p90
S''
sS'subscription'
p91
S'none'
p92
sstRp93
sS'anon_allow'
p94
S'yes'
p95
sS'password'
p96
Vsecret
p97
sS'storage'
p98
g1
(g2
g3
(dtRp99
stRp100
sVtechnical_analysis
p101
g1
(g2
g3
(dp102
S'name'
p103
Vtechnical_analysis
p104
sS'groups'
p105
g1
(g2
g3
(dtRp106
sS'roster'
p107
g1
(g2
g3
(dp108
Vams.127.0.0.1
p109
(dp110
S'state'
p111
S''
sS'subscription'
p112
g92
sstRp113
sS'anon_allow'
p114
S'yes'
p115
sS'password'
p116
Vsecret
p117
sS'storage'
p118
g1
(g2
g3
(dtRp119
stRp120
sVbidder1
p121
g1
(g2
g3
(dp122
g35
Vbidder1
p123
sg37
g1
(g2
g3
(dtRp124
sg39
g1
(g2
g3
(dp125
Vams.127.0.0.1
p126
(dp127
g43
S''
sg44
g45
sstRp128
sg47
g48
sg49
Vsecret
p129
sg51
g1
(g2
g3
(dtRp130
stRp131
sVbidder0
p132
g1
(g2
g3
(dp133
g35
Vbidder0
p134
sg37
g1
(g2
g3
(dtRp135
sg39
g1
(g2
g3
(dp136
Vams.127.0.0.1
p137
(dp138
g43
S''
sg44
g45
sstRp139
sg47
g48
sg49
Vsecret
p140
sg51
g1
(g2
g3
(dtRp141
stRp142
sVbidder3
p143
g1
(g2
g3
(dp144
g35
Vbidder3
p145
sg37
g1
(g2
g3
(dtRp146
sg39
g1
(g2
g3
(dp147
Vams.127.0.0.1
p148
(dp149
g43
S''
sg44
g45
sstRp150
sg47
g48
sg49
Vsecret
p151
sg51
g1
(g2
g3
(dtRp152
stRp153
sVbidder2
p154
g1
(g2
g3
(dp155
g35
Vbidder2
p156
sg37
g1
(g2
g3
(dtRp157
sg39
g1
(g2
g3
(dp158
Vams.127.0.0.1
p159
(dp160
g43
S''
sg44
g45
sstRp161
sg47
g48
sg49
Vsecret
p162
sg51
g1
(g2
g3
(dtRp163
stRp164
sVbidder5
p165
g1
(g2
g3
(dp166
g35
Vbidder5
p167
sg37
g1
(g2
g3
(dtRp168
sg39
g1
(g2
g3
(dp169
Vams.127.0.0.1
p170
(dp171
g43
S''
sg44
g45
sstRp172
sg47
g48
sg49
Vsecret
p173
sg51
g1
(g2
g3
(dtRp174
stRp175
sS'ams'
p176
g1
(g2
g3
(dp177
g56
S'AMS'
p178
sg58
g1
(g2
g3
(dtRp179
sg60
g1
(g2
g3
(dp180
S'decision_making@127.0.0.1'
p181
(dp182
S'state'
p183
S''
sS'subscription'
p184
g92
ssS'technical_analysis@127.0.0.1'
p185
(dp186
g183
S''
sg184
g92
ssS'profiler@127.0.0.1'
p187
(dp188
g183
S''
sg184
S'from'
p189
ssS'monitor@127.0.0.1'
p190
(dp191
g183
S''
sg184
g92
ssS'coordinator@127.0.0.1'
p192
(dp193
g183
S''
sg184
g92
sstRp194
sg62
g63
sg64
S'IsaFohky'
p195
sg66
g1
(g2
g3
(dtRp196
stRp197
sVbidder7
p198
g1
(g2
g3
(dp199
g35
Vbidder7
p200
sg37
g1
(g2
g3
(dtRp201
sg39
g1
(g2
g3
(dp202
Vams.127.0.0.1
p203
(dp204
g43
S''
sg44
g45
sstRp205
sg47
g48
sg49
Vsecret
p206
sg51
g1
(g2
g3
(dtRp207
stRp208
sVbidder6
p209
g1
(g2
g3
(dp210
g35
Vbidder6
p211
sg37
g1
(g2
g3
(dtRp212
sg39
g1
(g2
g3
(dp213
Vams.127.0.0.1
p214
(dp215
g43
S''
sg44
g45
sstRp216
sg47
g48
sg49
Vsecret
p217
sg51
g1
(g2
g3
(dtRp218
stRp219
sS'acc'
p220
g1
(g2
g3
(dp221
g56
S'ACC'
p222
sg58
g1
(g2
g3
(dtRp223
sg60
g1
(g2
g3
(dtRp224
sg62
g63
sg64
S'vOXRYqkX'
p225
sg66
g1
(g2
g3
(dtRp226
stRp227
sVc
g1
(g2
g3
(dp228
S'name'
p229
Vc
sS'groups'
p230
g1
(g2
g3
(dtRp231
sS'roster'
p232
g1
(g2
g3
(dp233
S'a@127.0.0.1'
p234
(dp235
g20
S''
sg21
g22
ssVams.127.0.0.1
p236
(dp237
g20
S''
sg21
g17
sstRp238
sS'anon_allow'
p239
S'yes'
p240
sS'password'
p241
Vsecret
p242
sS'storage'
p243
g1
(g2
g3
(dtRp244
stRp245
sVb
g1
(g2
g3
(dp246
g8
Vb
sg9
g1
(g2
g3
(dtRp247
sg11
g1
(g2
g3
(dp248
Vams.127.0.0.1
p249
(dp250
g15
S''
sg16
g17
ssS'a@127.0.0.1'
p251
(dp252
g20
S''
sg21
g22
sstRp253
sg26
g27
sg28
Vsecret
p254
sg30
g1
(g2
g3
(dtRp255
stRp256
sVmonitor
p257
g1
(g2
g3
(dp258
S'name'
p259
Vmonitor
p260
sS'groups'
p261
g1
(g2
g3
(dtRp262
sS'roster'
p263
g1
(g2
g3
(dp264
Vams.127.0.0.1
p265
(dp266
S'state'
p267
S''
sS'subscription'
p268
g92
sstRp269
sS'anon_allow'
p270
S'yes'
p271
sS'password'
p272
Vsecret
p273
sS'storage'
p274
g1
(g2
g3
(dtRp275
stRp276
sVbidder8
p277
g1
(g2
g3
(dp278
g35
Vbidder8
p279
sg37
g1
(g2
g3
(dtRp280
sg39
g1
(g2
g3
(dp281
Vams.127.0.0.1
p282
(dp283
g43
S''
sg44
g45
sstRp284
sg47
g48
sg49
Vsecret
p285
sg51
g1
(g2
g3
(dtRp286
stRp287
sVdecision_making
p288
g1
(g2
g3
(dp289
g56
Vdecision_making
p290
sg58
g1
(g2
g3
(dtRp291
sg60
g1
(g2
g3
(dp292
Vams.127.0.0.1
p293
(dp294
g183
S''
sg184
g92
sstRp295
sg62
g63
sg64
Vsecret
p296
sg66
g1
(g2
g3
(dtRp297
stRp298
sVbidder4
p299
g1
(g2
g3
(dp300
g35
Vbidder4
p301
sg37
g1
(g2
g3
(dtRp302
sg39
g1
(g2
g3
(dp303
Vams.127.0.0.1
p304
(dp305
g43
S''
sg44
g45
sstRp306
sg47
g48
sg49
Vsecret
p307
sg51
g1
(g2
g3
(dtRp308
stRp309
sVplayer2
p310
g1
(g2
g3
(dp311
g229
Vplayer2
p312
sg230
g1
(g2
g3
(dtRp313
sg232
g1
(g2
g3
(dp314
Vams.127.0.0.1
p315
(dp316
g20
S''
sg21
S'to'
p317
sstRp318
sg239
g240
sg241
Vsecret
p319
sg243
g1
(g2
g3
(dtRp320
stRp321
sVplayer3
p322
g1
(g2
g3
(dp323
g229
Vplayer3
p324
sg230
g1
(g2
g3
(dtRp325
sg232
g1
(g2
g3
(dp326
Vams.127.0.0.1
p327
(dp328
g20
S''
sg21
g317
sstRp329
sg239
g240
sg241
Vsecret
p330
sg243
g1
(g2
g3
(dtRp331
stRp332
sVplayer0
p333
g1
(g2
g3
(dp334
g229
Vplayer0
p335
sg230
g1
(g2
g3
(dtRp336
sg232
g1
(g2
g3
(dp337
Vams.127.0.0.1
p338
(dp339
g20
S''
sg21
g317
sstRp340
sg239
g240
sg241
Vsecret
p341
sg243
g1
(g2
g3
(dtRp342
stRp343
sVplayer1
p344
g1
(g2
g3
(dp345
g229
Vplayer1
p346
sg230
g1
(g2
g3
(dtRp347
sg232
g1
(g2
g3
(dp348
Vams.127.0.0.1
p349
(dp350
g20
S''
sg21
g317
sstRp351
sg239
g240
sg241
Vsecret
p352
sg243
g1
(g2
g3
(dtRp353
stRp354
sVplayer4
p355
g1
(g2
g3
(dp356
g229
Vplayer4
p357
sg230
g1
(g2
g3
(dtRp358
sg232
g1
(g2
g3
(dp359
Vams.127.0.0.1
p360
(dp361
g20
S''
sg21
g317
sstRp362
sg239
g240
sg241
Vsecret
p363
sg243
g1
(g2
g3
(dtRp364
stRp365
sVdalmuti
p366
g1
(g2
g3
(dp367
g229
Vdalmuti
p368
sg230
g1
(g2
g3
(dtRp369
sg232
g1
(g2
g3
(dp370
Vams.127.0.0.1
p371
(dp372
g20
S''
sg21
g317
sstRp373
sg239
g240
sg241
VElGranDalmuti
p374
sg243
g1
(g2
g3
(dtRp375
stRp376
sVprofiler
p377
g1
(g2
g3
(dp378
g56
Vprofiler
p379
sg58
g1
(g2
g3
(dtRp380
sg60
g1
(g2
g3
(dp381
Vams.127.0.0.1
p382
(dp383
g183
S''
sg184
S'to'
p384
sstRp385
sg62
g63
sg64
Vsecret
p386
sg66
g1
(g2
g3
(dtRp387
stRp388
sS'__ir__'
p389
(dp390
g62
g63
sg64
S'test'
p391
sg66
(dp392
S'karma'
p393
(dp394
S'down'
p395
I307200
sS'tot_up'
p396
I0
sS'tot_down'
p397
I0
sS'up'
p398
I307200307200307200
sS'last_time'
p399
F0
sssg58
(dp400
sg60
(dp401
sstRp402
stRp403
.