ccopy_reg
_reconstructor
p1
(cxmppd.modules.db_fake
DictWatch
p2
c__builtin__
dict
p3
(dp4
S'127.0.0.1'
p5
g1
(g2
g3
(dp6
S'acc'
p7
g1
(g2
g3
(dp8
S'name'
p9
S'ACC'
p10
sS'groups'
p11
g1
(g2
g3
(dtRp12
sS'roster'
p13
g1
(g2
g3
(dtRp14
sS'anon_allow'
p15
S'yes'
p16
sS'password'
p17
S'vOXRYqkX'
p18
sS'storage'
p19
g1
(g2
g3
(dtRp20
stRp21
sVtechnical_analysis
p22
g1
(g2
g3
(dp23
S'name'
p24
Vtechnical_analysis
p25
sS'groups'
p26
g1
(g2
g3
(dtRp27
sS'roster'
p28
g1
(g2
g3
(dp29
Vams.127.0.0.1
p30
(dp31
S'state'
p32
S''
sS'subscription'
p33
S'none'
p34
sstRp35
sS'anon_allow'
p36
S'yes'
p37
sS'password'
p38
Vsecret
p39
sS'storage'
p40
g1
(g2
g3
(dtRp41
stRp42
sVb
g1
(g2
g3
(dp43
S'name'
p44
Vb
sS'groups'
p45
g1
(g2
g3
(dtRp46
sS'roster'
p47
g1
(g2
g3
(dp48
Vams.127.0.0.1
p49
(dp50
S'state'
p51
S''
sS'subscription'
p52
S'to'
p53
sstRp54
sS'anon_allow'
p55
S'yes'
p56
sS'password'
p57
Vsecret
p58
sS'storage'
p59
g1
(g2
g3
(dtRp60
stRp61
sS'df'
p62
g1
(g2
g3
(dp63
g9
S'DF'
p64
sg11
g1
(g2
g3
(dtRp65
sg13
g1
(g2
g3
(dtRp66
sg15
g16
sg17
S'EgNrryqr'
p67
sg19
g1
(g2
g3
(dtRp68
stRp69
sVcoordinator
p70
g1
(g2
g3
(dp71
S'name'
p72
Vcoordinator
p73
sS'groups'
p74
g1
(g2
g3
(dtRp75
sS'roster'
p76
g1
(g2
g3
(dp77
Vams.127.0.0.1
p78
(dp79
S'state'
p80
S''
sS'subscription'
p81
g34
sstRp82
sS'anon_allow'
p83
S'yes'
p84
sS'password'
p85
Vsecret
p86
sS'storage'
p87
g1
(g2
g3
(dtRp88
stRp89
sVa
g1
(g2
g3
(dp90
g44
Va
sg45
g1
(g2
g3
(dtRp91
sg47
g1
(g2
g3
(dp92
Vams.127.0.0.1
p93
(dp94
g51
S''
sg52
g53
sstRp95
sg55
g56
sg57
Vsecret
p96
sg59
g1
(g2
g3
(dtRp97
stRp98
sS'ams'
p99
g1
(g2
g3
(dp100
g9
S'AMS'
p101
sg11
g1
(g2
g3
(dtRp102
sg13
g1
(g2
g3
(dp103
S'coordinator@127.0.0.1'
p104
(dp105
S'state'
p106
S''
sS'subscription'
p107
g34
ssS'technical_analysis@127.0.0.1'
p108
(dp109
g106
S''
sg107
g34
sstRp110
sg15
g16
sg17
S'IsaFohky'
p111
sg19
g1
(g2
g3
(dtRp112
stRp113
sS'__ir__'
p114
(dp115
g15
g16
sg17
S'test'
p116
sg19
(dp117
S'karma'
p118
(dp119
S'down'
p120
I307200
sS'tot_up'
p121
I0
sS'tot_down'
p122
I0
sS'up'
p123
I307200307200307200
sS'last_time'
p124
F0
sssg11
(dp125
sg13
(dp126
sstRp127
stRp128
.