ccopy_reg
_reconstructor
p1
(cxmppd.modules.db_fake
DictWatch
p2
c__builtin__
dict
p3
(dp4
S'127.0.0.1'
p5
g1
(g2
g3
(dp6
Va
g1
(g2
g3
(dp7
S'name'
p8
Va
sS'groups'
p9
g1
(g2
g3
(dtRp10
sS'roster'
p11
g1
(g2
g3
(dp12
Vams.127.0.0.1
p13
(dp14
S'state'
p15
S''
sS'subscription'
p16
S'none'
p17
ssVb@127.0.0.1
p18
(dp19
S'state'
p20
S''
sS'subscription'
p21
S'both'
p22
ssVc@127.0.0.1
p23
(dp24
g20
S''
sg21
g22
sstRp25
sS'anon_allow'
p26
S'yes'
p27
sS'password'
p28
Vsecret
p29
sS'storage'
p30
g1
(g2
g3
(dtRp31
stRp32
sVauctioner
p33
g1
(g2
g3
(dp34
S'name'
p35
Vauctioner
p36
sS'groups'
p37
g1
(g2
g3
(dtRp38
sS'roster'
p39
g1
(g2
g3
(dp40
Vams.127.0.0.1
p41
(dp42
S'state'
p43
S''
sS'subscription'
p44
S'none'
p45
sstRp46
sS'anon_allow'
p47
S'yes'
p48
sS'password'
p49
Vsecret
p50
sS'storage'
p51
g1
(g2
g3
(dtRp52
stRp53
sS'df'
p54
g1
(g2
g3
(dp55
S'name'
p56
S'DF'
p57
sS'groups'
p58
g1
(g2
g3
(dtRp59
sS'roster'
p60
g1
(g2
g3
(dtRp61
sS'anon_allow'
p62
S'yes'
p63
sS'password'
p64
S'EgNrryqr'
p65
sS'storage'
p66
g1
(g2
g3
(dtRp67
stRp68
sVbidder9
p69
g1
(g2
g3
(dp70
g35
Vbidder9
p71
sg37
g1
(g2
g3
(dtRp72
sg39
g1
(g2
g3
(dp73
Vams.127.0.0.1
p74
(dp75
g43
S''
sg44
g45
sstRp76
sg47
g48
sg49
Vsecret
p77
sg51
g1
(g2
g3
(dtRp78
stRp79
sVcoordinator
p80
g1
(g2
g3
(dp81
S'name'
p82
Vcoordinator
p83
sS'groups'
p84
g1
(g2
g3
(dtRp85
sS'roster'
p86
g1
(g2
g3
(dp87
Vams.127.0.0.1
p88
(dp89
S'state'
p90
S''
sS'subscription'
p91
S'none'
p92
sstRp93
sS'anon_allow'
p94
S'yes'
p95
sS'password'
p96
Vsecret
p97
sS'storage'
p98
g1
(g2
g3
(dtRp99
stRp100
sVtechnical_analysis
p101
g1
(g2
g3
(dp102
S'name'
p103
Vtechnical_analysis
p104
sS'groups'
p105
g1
(g2
g3
(dtRp106
sS'roster'
p107
g1
(g2
g3
(dp108
Vams.127.0.0.1
p109
(dp110
S'state'
p111
S''
sS'subscription'
p112
g92
sstRp113
sS'anon_allow'
p114
S'yes'
p115
sS'password'
p116
Vsecret
p117
sS'storage'
p118
g1
(g2
g3
(dtRp119
stRp120
sVbidder1
p121
g1
(g2
g3
(dp122
g35
Vbidder1
p123
sg37
g1
(g2
g3
(dtRp124
sg39
g1
(g2
g3
(dp125
Vams.127.0.0.1
p126
(dp127
g43
S''
sg44
g45
sstRp128
sg47
g48
sg49
Vsecret
p129
sg51
g1
(g2
g3
(dtRp130
stRp131
sVbidder0
p132
g1
(g2
g3
(dp133
g35
Vbidder0
p134
sg37
g1
(g2
g3
(dtRp135
sg39
g1
(g2
g3
(dp136
Vams.127.0.0.1
p137
(dp138
g43
S''
sg44
g45
sstRp139
sg47
g48
sg49
Vsecret
p140
sg51
g1
(g2
g3
(dtRp141
stRp142
sS'ams'
p143
g1
(g2
g3
(dp144
g56
S'AMS'
p145
sg58
g1
(g2
g3
(dtRp146
sg60
g1
(g2
g3
(dp147
S'coordinator@127.0.0.1'
p148
(dp149
S'state'
p150
S''
sS'subscription'
p151
g92
ssS'technical_analysis@127.0.0.1'
p152
(dp153
g150
S''
sg151
g92
ssS'monitor@127.0.0.1'
p154
(dp155
g150
S''
sg151
g92
sstRp156
sg62
g63
sg64
S'IsaFohky'
p157
sg66
g1
(g2
g3
(dtRp158
stRp159
sVbidder2
p160
g1
(g2
g3
(dp161
g35
Vbidder2
p162
sg37
g1
(g2
g3
(dtRp163
sg39
g1
(g2
g3
(dp164
Vams.127.0.0.1
p165
(dp166
g43
S''
sg44
g45
sstRp167
sg47
g48
sg49
Vsecret
p168
sg51
g1
(g2
g3
(dtRp169
stRp170
sVbidder5
p171
g1
(g2
g3
(dp172
g35
Vbidder5
p173
sg37
g1
(g2
g3
(dtRp174
sg39
g1
(g2
g3
(dp175
Vams.127.0.0.1
p176
(dp177
g43
S''
sg44
g45
sstRp178
sg47
g48
sg49
Vsecret
p179
sg51
g1
(g2
g3
(dtRp180
stRp181
sVbidder3
p182
g1
(g2
g3
(dp183
g35
Vbidder3
p184
sg37
g1
(g2
g3
(dtRp185
sg39
g1
(g2
g3
(dp186
Vams.127.0.0.1
p187
(dp188
g43
S''
sg44
g45
sstRp189
sg47
g48
sg49
Vsecret
p190
sg51
g1
(g2
g3
(dtRp191
stRp192
sVbidder7
p193
g1
(g2
g3
(dp194
g35
Vbidder7
p195
sg37
g1
(g2
g3
(dtRp196
sg39
g1
(g2
g3
(dp197
Vams.127.0.0.1
p198
(dp199
g43
S''
sg44
g45
sstRp200
sg47
g48
sg49
Vsecret
p201
sg51
g1
(g2
g3
(dtRp202
stRp203
sVbidder6
p204
g1
(g2
g3
(dp205
g35
Vbidder6
p206
sg37
g1
(g2
g3
(dtRp207
sg39
g1
(g2
g3
(dp208
Vams.127.0.0.1
p209
(dp210
g43
S''
sg44
g45
sstRp211
sg47
g48
sg49
Vsecret
p212
sg51
g1
(g2
g3
(dtRp213
stRp214
sS'acc'
p215
g1
(g2
g3
(dp216
g56
S'ACC'
p217
sg58
g1
(g2
g3
(dtRp218
sg60
g1
(g2
g3
(dtRp219
sg62
g63
sg64
S'vOXRYqkX'
p220
sg66
g1
(g2
g3
(dtRp221
stRp222
sVc
g1
(g2
g3
(dp223
S'name'
p224
Vc
sS'groups'
p225
g1
(g2
g3
(dtRp226
sS'roster'
p227
g1
(g2
g3
(dp228
S'a@127.0.0.1'
p229
(dp230
g20
S''
sg21
g22
ssVams.127.0.0.1
p231
(dp232
g20
S''
sg21
g17
sstRp233
sS'anon_allow'
p234
S'yes'
p235
sS'password'
p236
Vsecret
p237
sS'storage'
p238
g1
(g2
g3
(dtRp239
stRp240
sVb
g1
(g2
g3
(dp241
g8
Vb
sg9
g1
(g2
g3
(dtRp242
sg11
g1
(g2
g3
(dp243
Vams.127.0.0.1
p244
(dp245
g15
S''
sg16
g17
ssS'a@127.0.0.1'
p246
(dp247
g20
S''
sg21
g22
sstRp248
sg26
g27
sg28
Vsecret
p249
sg30
g1
(g2
g3
(dtRp250
stRp251
sVmonitor
p252
g1
(g2
g3
(dp253
S'name'
p254
Vmonitor
p255
sS'groups'
p256
g1
(g2
g3
(dtRp257
sS'roster'
p258
g1
(g2
g3
(dp259
Vams.127.0.0.1
p260
(dp261
S'state'
p262
S''
sS'subscription'
p263
g92
sstRp264
sS'anon_allow'
p265
S'yes'
p266
sS'password'
p267
Vsecret
p268
sS'storage'
p269
g1
(g2
g3
(dtRp270
stRp271
sVbidder8
p272
g1
(g2
g3
(dp273
g35
Vbidder8
p274
sg37
g1
(g2
g3
(dtRp275
sg39
g1
(g2
g3
(dp276
Vams.127.0.0.1
p277
(dp278
g43
S''
sg44
g45
sstRp279
sg47
g48
sg49
Vsecret
p280
sg51
g1
(g2
g3
(dtRp281
stRp282
sVbidder4
p283
g1
(g2
g3
(dp284
g35
Vbidder4
p285
sg37
g1
(g2
g3
(dtRp286
sg39
g1
(g2
g3
(dp287
Vams.127.0.0.1
p288
(dp289
g43
S''
sg44
g45
sstRp290
sg47
g48
sg49
Vsecret
p291
sg51
g1
(g2
g3
(dtRp292
stRp293
sVplayer2
p294
g1
(g2
g3
(dp295
g224
Vplayer2
p296
sg225
g1
(g2
g3
(dtRp297
sg227
g1
(g2
g3
(dp298
Vams.127.0.0.1
p299
(dp300
g20
S''
sg21
S'to'
p301
sstRp302
sg234
g235
sg236
Vsecret
p303
sg238
g1
(g2
g3
(dtRp304
stRp305
sVplayer3
p306
g1
(g2
g3
(dp307
g224
Vplayer3
p308
sg225
g1
(g2
g3
(dtRp309
sg227
g1
(g2
g3
(dp310
Vams.127.0.0.1
p311
(dp312
g20
S''
sg21
g301
sstRp313
sg234
g235
sg236
Vsecret
p314
sg238
g1
(g2
g3
(dtRp315
stRp316
sVplayer0
p317
g1
(g2
g3
(dp318
g224
Vplayer0
p319
sg225
g1
(g2
g3
(dtRp320
sg227
g1
(g2
g3
(dp321
Vams.127.0.0.1
p322
(dp323
g20
S''
sg21
g301
sstRp324
sg234
g235
sg236
Vsecret
p325
sg238
g1
(g2
g3
(dtRp326
stRp327
sVplayer1
p328
g1
(g2
g3
(dp329
g224
Vplayer1
p330
sg225
g1
(g2
g3
(dtRp331
sg227
g1
(g2
g3
(dp332
Vams.127.0.0.1
p333
(dp334
g20
S''
sg21
g301
sstRp335
sg234
g235
sg236
Vsecret
p336
sg238
g1
(g2
g3
(dtRp337
stRp338
sVplayer4
p339
g1
(g2
g3
(dp340
g224
Vplayer4
p341
sg225
g1
(g2
g3
(dtRp342
sg227
g1
(g2
g3
(dp343
Vams.127.0.0.1
p344
(dp345
g20
S''
sg21
g301
sstRp346
sg234
g235
sg236
Vsecret
p347
sg238
g1
(g2
g3
(dtRp348
stRp349
sVdalmuti
p350
g1
(g2
g3
(dp351
g224
Vdalmuti
p352
sg225
g1
(g2
g3
(dtRp353
sg227
g1
(g2
g3
(dp354
Vams.127.0.0.1
p355
(dp356
g20
S''
sg21
g301
sstRp357
sg234
g235
sg236
VElGranDalmuti
p358
sg238
g1
(g2
g3
(dtRp359
stRp360
sS'__ir__'
p361
(dp362
g62
g63
sg64
S'test'
p363
sg66
(dp364
S'karma'
p365
(dp366
S'down'
p367
I307200
sS'tot_up'
p368
I0
sS'tot_down'
p369
I0
sS'up'
p370
I307200307200307200
sS'last_time'
p371
F0
sssg58
(dp372
sg60
(dp373
sstRp374
stRp375
.