ccopy_reg
_reconstructor
p1
(cxmppd.modules.db_fake
DictWatch
p2
c__builtin__
dict
p3
(dp4
S'127.0.0.1'
p5
g1
(g2
g3
(dp6
Vtechnical_analysis
p7
g1
(g2
g3
(dp8
S'name'
p9
Vtechnical_analysis
p10
sS'groups'
p11
g1
(g2
g3
(dtRp12
sS'roster'
p13
g1
(g2
g3
(dp14
Vams.127.0.0.1
p15
(dp16
S'state'
p17
S''
sS'subscription'
p18
S'none'
p19
sstRp20
sS'anon_allow'
p21
S'yes'
p22
sS'password'
p23
Vsecret
p24
sS'storage'
p25
g1
(g2
g3
(dtRp26
stRp27
sVauctioner
p28
g1
(g2
g3
(dp29
S'name'
p30
Vauctioner
p31
sS'groups'
p32
g1
(g2
g3
(dtRp33
sS'roster'
p34
g1
(g2
g3
(dp35
Vams.127.0.0.1
p36
(dp37
S'state'
p38
S''
sS'subscription'
p39
S'none'
p40
sstRp41
sS'anon_allow'
p42
S'yes'
p43
sS'password'
p44
Vsecret
p45
sS'storage'
p46
g1
(g2
g3
(dtRp47
stRp48
sS'df'
p49
g1
(g2
g3
(dp50
S'name'
p51
S'DF'
p52
sS'groups'
p53
g1
(g2
g3
(dtRp54
sS'roster'
p55
g1
(g2
g3
(dtRp56
sS'anon_allow'
p57
S'yes'
p58
sS'password'
p59
S'EgNrryqr'
p60
sS'storage'
p61
g1
(g2
g3
(dtRp62
stRp63
sVbidder9
p64
g1
(g2
g3
(dp65
g30
Vbidder9
p66
sg32
g1
(g2
g3
(dtRp67
sg34
g1
(g2
g3
(dp68
Vams.127.0.0.1
p69
(dp70
g38
S''
sg39
g40
sstRp71
sg42
g43
sg44
Vsecret
p72
sg46
g1
(g2
g3
(dtRp73
stRp74
sVcoordinator
p75
g1
(g2
g3
(dp76
S'name'
p77
Vcoordinator
p78
sS'groups'
p79
g1
(g2
g3
(dtRp80
sS'roster'
p81
g1
(g2
g3
(dp82
Vams.127.0.0.1
p83
(dp84
S'state'
p85
S''
sS'subscription'
p86
g19
sstRp87
sS'anon_allow'
p88
S'yes'
p89
sS'password'
p90
Vsecret
p91
sS'storage'
p92
g1
(g2
g3
(dtRp93
stRp94
sVbidder1
p95
g1
(g2
g3
(dp96
g30
Vbidder1
p97
sg32
g1
(g2
g3
(dtRp98
sg34
g1
(g2
g3
(dp99
Vams.127.0.0.1
p100
(dp101
g38
S''
sg39
g40
sstRp102
sg42
g43
sg44
Vsecret
p103
sg46
g1
(g2
g3
(dtRp104
stRp105
sVbidder0
p106
g1
(g2
g3
(dp107
g30
Vbidder0
p108
sg32
g1
(g2
g3
(dtRp109
sg34
g1
(g2
g3
(dp110
Vams.127.0.0.1
p111
(dp112
g38
S''
sg39
g40
sstRp113
sg42
g43
sg44
Vsecret
p114
sg46
g1
(g2
g3
(dtRp115
stRp116
sVbidder3
p117
g1
(g2
g3
(dp118
g30
Vbidder3
p119
sg32
g1
(g2
g3
(dtRp120
sg34
g1
(g2
g3
(dp121
Vams.127.0.0.1
p122
(dp123
g38
S''
sg39
g40
sstRp124
sg42
g43
sg44
Vsecret
p125
sg46
g1
(g2
g3
(dtRp126
stRp127
sVbidder2
p128
g1
(g2
g3
(dp129
g30
Vbidder2
p130
sg32
g1
(g2
g3
(dtRp131
sg34
g1
(g2
g3
(dp132
Vams.127.0.0.1
p133
(dp134
g38
S''
sg39
g40
sstRp135
sg42
g43
sg44
Vsecret
p136
sg46
g1
(g2
g3
(dtRp137
stRp138
sVbidder5
p139
g1
(g2
g3
(dp140
g30
Vbidder5
p141
sg32
g1
(g2
g3
(dtRp142
sg34
g1
(g2
g3
(dp143
Vams.127.0.0.1
p144
(dp145
g38
S''
sg39
g40
sstRp146
sg42
g43
sg44
Vsecret
p147
sg46
g1
(g2
g3
(dtRp148
stRp149
sS'ams'
p150
g1
(g2
g3
(dp151
g51
S'AMS'
p152
sg53
g1
(g2
g3
(dtRp153
sg55
g1
(g2
g3
(dp154
S'player0@127.0.0.1'
p155
(dp156
S'state'
p157
S''
sS'subscription'
p158
S'from'
p159
ssS'a@127.0.0.1'
p160
(dp161
g157
S''
sg158
g19
ssS'coordinator@127.0.0.1'
p162
(dp163
g157
S''
sg158
g19
ssS'c@127.0.0.1'
p164
(dp165
g157
S''
sg158
g19
ssS'dalmuti@127.0.0.1'
p166
(dp167
g157
S''
sg158
g159
ssS'technical_analysis@127.0.0.1'
p168
(dp169
g157
S''
sg158
g19
ssS'player3@127.0.0.1'
p170
(dp171
g157
S''
sg158
g159
ssS'player2@127.0.0.1'
p172
(dp173
g157
S''
sg158
g159
ssS'player1@127.0.0.1'
p174
(dp175
g157
S''
sg158
g159
ssS'player4@127.0.0.1'
p176
(dp177
g157
S''
sg158
g159
ssS'b@127.0.0.1'
p178
(dp179
g157
S''
sg158
g19
sstRp180
sg57
g58
sg59
S'IsaFohky'
p181
sg61
g1
(g2
g3
(dtRp182
stRp183
sVbidder7
p184
g1
(g2
g3
(dp185
g30
Vbidder7
p186
sg32
g1
(g2
g3
(dtRp187
sg34
g1
(g2
g3
(dp188
Vams.127.0.0.1
p189
(dp190
g38
S''
sg39
g40
sstRp191
sg42
g43
sg44
Vsecret
p192
sg46
g1
(g2
g3
(dtRp193
stRp194
sVbidder6
p195
g1
(g2
g3
(dp196
g30
Vbidder6
p197
sg32
g1
(g2
g3
(dtRp198
sg34
g1
(g2
g3
(dp199
Vams.127.0.0.1
p200
(dp201
g38
S''
sg39
g40
sstRp202
sg42
g43
sg44
Vsecret
p203
sg46
g1
(g2
g3
(dtRp204
stRp205
sVa
g1
(g2
g3
(dp206
S'name'
p207
Va
sS'groups'
p208
g1
(g2
g3
(dtRp209
sS'roster'
p210
g1
(g2
g3
(dp211
Vams.127.0.0.1
p212
(dp213
S'state'
p214
S''
sS'subscription'
p215
g19
ssVb@127.0.0.1
p216
(dp217
g157
S''
sg158
S'both'
p218
ssVc@127.0.0.1
p219
(dp220
g157
S''
sg158
g218
sstRp221
sS'anon_allow'
p222
S'yes'
p223
sS'password'
p224
Vsecret
p225
sS'storage'
p226
g1
(g2
g3
(dtRp227
stRp228
sVc
g1
(g2
g3
(dp229
g51
Vc
sg53
g1
(g2
g3
(dtRp230
sg55
g1
(g2
g3
(dp231
S'a@127.0.0.1'
p232
(dp233
g157
S''
sg158
g218
ssVams.127.0.0.1
p234
(dp235
g157
S''
sg158
g19
sstRp236
sg57
g58
sg59
Vsecret
p237
sg61
g1
(g2
g3
(dtRp238
stRp239
sVb
g1
(g2
g3
(dp240
g207
Vb
sg208
g1
(g2
g3
(dtRp241
sg210
g1
(g2
g3
(dp242
Vams.127.0.0.1
p243
(dp244
g214
S''
sg215
g19
ssS'a@127.0.0.1'
p245
(dp246
g157
S''
sg158
g218
sstRp247
sg222
g223
sg224
Vsecret
p248
sg226
g1
(g2
g3
(dtRp249
stRp250
sVbidder8
p251
g1
(g2
g3
(dp252
g30
Vbidder8
p253
sg32
g1
(g2
g3
(dtRp254
sg34
g1
(g2
g3
(dp255
Vams.127.0.0.1
p256
(dp257
g38
S''
sg39
g40
sstRp258
sg42
g43
sg44
Vsecret
p259
sg46
g1
(g2
g3
(dtRp260
stRp261
sVbidder4
p262
g1
(g2
g3
(dp263
g30
Vbidder4
p264
sg32
g1
(g2
g3
(dtRp265
sg34
g1
(g2
g3
(dp266
Vams.127.0.0.1
p267
(dp268
g38
S''
sg39
g40
sstRp269
sg42
g43
sg44
Vsecret
p270
sg46
g1
(g2
g3
(dtRp271
stRp272
sVplayer2
p273
g1
(g2
g3
(dp274
g51
Vplayer2
p275
sg53
g1
(g2
g3
(dtRp276
sg55
g1
(g2
g3
(dp277
Vams.127.0.0.1
p278
(dp279
g157
S''
sg158
S'to'
p280
sstRp281
sg57
g58
sg59
Vsecret
p282
sg61
g1
(g2
g3
(dtRp283
stRp284
sVplayer3
p285
g1
(g2
g3
(dp286
g51
Vplayer3
p287
sg53
g1
(g2
g3
(dtRp288
sg55
g1
(g2
g3
(dp289
Vams.127.0.0.1
p290
(dp291
g157
S''
sg158
g280
sstRp292
sg57
g58
sg59
Vsecret
p293
sg61
g1
(g2
g3
(dtRp294
stRp295
sVplayer0
p296
g1
(g2
g3
(dp297
g51
Vplayer0
p298
sg53
g1
(g2
g3
(dtRp299
sg55
g1
(g2
g3
(dp300
Vams.127.0.0.1
p301
(dp302
g157
S''
sg158
g280
sstRp303
sg57
g58
sg59
Vsecret
p304
sg61
g1
(g2
g3
(dtRp305
stRp306
sVplayer1
p307
g1
(g2
g3
(dp308
g51
Vplayer1
p309
sg53
g1
(g2
g3
(dtRp310
sg55
g1
(g2
g3
(dp311
Vams.127.0.0.1
p312
(dp313
g157
S''
sg158
g280
sstRp314
sg57
g58
sg59
Vsecret
p315
sg61
g1
(g2
g3
(dtRp316
stRp317
sVplayer4
p318
g1
(g2
g3
(dp319
g51
Vplayer4
p320
sg53
g1
(g2
g3
(dtRp321
sg55
g1
(g2
g3
(dp322
Vams.127.0.0.1
p323
(dp324
g157
S''
sg158
g280
sstRp325
sg57
g58
sg59
Vsecret
p326
sg61
g1
(g2
g3
(dtRp327
stRp328
sVdalmuti
p329
g1
(g2
g3
(dp330
g51
Vdalmuti
p331
sg53
g1
(g2
g3
(dtRp332
sg55
g1
(g2
g3
(dp333
Vams.127.0.0.1
p334
(dp335
g157
S''
sg158
g280
sstRp336
sg57
g58
sg59
VElGranDalmuti
p337
sg61
g1
(g2
g3
(dtRp338
stRp339
sS'acc'
p340
g1
(g2
g3
(dp341
g51
S'ACC'
p342
sg53
g1
(g2
g3
(dtRp343
sg55
g1
(g2
g3
(dtRp344
sg57
g58
sg59
S'vOXRYqkX'
p345
sg61
g1
(g2
g3
(dtRp346
stRp347
stRp348
stRp349
.