ccopy_reg
_reconstructor
p1
(cxmppd.modules.db_fake
DictWatch
p2
c__builtin__
dict
p3
(dp4
S'127.0.0.1'
p5
g1
(g2
g3
(dp6
S'acc'
p7
g1
(g2
g3
(dp8
S'name'
p9
S'ACC'
p10
sS'groups'
p11
g1
(g2
g3
(dtRp12
sS'roster'
p13
g1
(g2
g3
(dtRp14
sS'anon_allow'
p15
S'yes'
p16
sS'password'
p17
S'vOXRYqkX'
p18
sS'storage'
p19
g1
(g2
g3
(dtRp20
stRp21
sVtechnical_analysis
p22
g1
(g2
g3
(dp23
S'name'
p24
Vtechnical_analysis
p25
sS'groups'
p26
g1
(g2
g3
(dtRp27
sS'roster'
p28
g1
(g2
g3
(dp29
Vams.127.0.0.1
p30
(dp31
S'state'
p32
S''
sS'subscription'
p33
S'none'
p34
sstRp35
sS'anon_allow'
p36
S'yes'
p37
sS'password'
p38
Vsecret
p39
sS'storage'
p40
g1
(g2
g3
(dtRp41
stRp42
sVcoordinator
p43
g1
(g2
g3
(dp44
S'name'
p45
Vcoordinator
p46
sS'groups'
p47
g1
(g2
g3
(dtRp48
sS'roster'
p49
g1
(g2
g3
(dp50
Vams.127.0.0.1
p51
(dp52
S'state'
p53
S''
sS'subscription'
p54
g34
sstRp55
sS'anon_allow'
p56
S'yes'
p57
sS'password'
p58
Vsecret
p59
sS'storage'
p60
g1
(g2
g3
(dtRp61
stRp62
sS'df'
p63
g1
(g2
g3
(dp64
g9
S'DF'
p65
sg11
g1
(g2
g3
(dtRp66
sg13
g1
(g2
g3
(dtRp67
sg15
g16
sg17
S'EgNrryqr'
p68
sg19
g1
(g2
g3
(dtRp69
stRp70
sS'ams'
p71
g1
(g2
g3
(dp72
g9
S'AMS'
p73
sg11
g1
(g2
g3
(dtRp74
sg13
g1
(g2
g3
(dp75
S'coordinator@127.0.0.1'
p76
(dp77
S'state'
p78
S''
sS'subscription'
p79
g34
ssS'technical_analysis@127.0.0.1'
p80
(dp81
g78
S''
sg79
g34
sstRp82
sg15
g16
sg17
S'IsaFohky'
p83
sg19
g1
(g2
g3
(dtRp84
stRp85
sS'__ir__'
p86
(dp87
g15
g16
sg17
S'test'
p88
sg19
(dp89
S'karma'
p90
(dp91
S'down'
p92
I307200
sS'tot_up'
p93
I0
sS'tot_down'
p94
I0
sS'up'
p95
I307200307200307200
sS'last_time'
p96
F0
sssg11
(dp97
sg13
(dp98
sstRp99
stRp100
.